; Function Attrs: nounwind uwtable
define ptr @l_Lean_getLocalHyps___at_Lean_Elab_Tactic_evalGeneralize___spec__3(ptr noundef readnone captures(none) %0, ptr noundef readnone captures(none) %1, ptr noundef readnone captures(none) %2, ptr noundef readnone captures(none) %3, ptr noundef readonly captures(none) %4, ptr noundef readnone captures(none) %5, ptr noundef readnone captures(none) %6, ptr noundef readnone captures(none) %7, ptr noundef %8) local_unnamed_addr #0 {
  %10 = getelementptr inbounds nuw i8, ptr %4, i64 24
  %11 = load ptr, ptr %10, align 8, !tbaa !9
  %12 = getelementptr inbounds nuw i8, ptr %11, i64 16
  %13 = load ptr, ptr %12, align 8, !tbaa !9
  %14 = load ptr, ptr @l_Lean_getLocalHyps___at_Lean_Elab_Tactic_evalGeneralize___spec__3___closed__1, align 8, !tbaa !9
  %15 = tail call ptr @l_Lean_PersistentArray_forIn___at_Lean_Elab_Tactic_evalGeneralize___spec__4(ptr noundef %13, ptr noundef %14, ptr noundef %0, ptr noundef %1, ptr noundef %2, ptr noundef %3, ptr noundef %4, ptr noundef %5, ptr noundef %6, ptr noundef %7, ptr noundef %8)
  %.val = load i32, ptr %15, align 4, !tbaa !4
  %16 = icmp eq i32 %.val, 1
  br i1 %16, label %53, label %17

17:                                               ; preds = %9
  %18 = getelementptr inbounds nuw i8, ptr %15, i64 8
  %19 = load ptr, ptr %18, align 8, !tbaa !9
  %20 = getelementptr inbounds nuw i8, ptr %15, i64 16
  %21 = load ptr, ptr %20, align 8, !tbaa !9
  %22 = ptrtoint ptr %21 to i64
  %23 = and i64 %22, 1
  %.not = icmp eq i64 %23, 0
  br i1 %.not, label %24, label %lean_inc.exit26

24:                                               ; preds = %17
  %.val.i = load i32, ptr %21, align 4, !tbaa !4
  %25 = icmp sgt i32 %.val.i, 0
  br i1 %25, label %26, label %28, !prof !11

26:                                               ; preds = %24
  %27 = add nuw i32 %.val.i, 1
  store i32 %27, ptr %21, align 4, !tbaa !4
  br label %lean_inc.exit26

28:                                               ; preds = %24
  %.not.i27 = icmp eq i32 %.val.i, 0
  br i1 %.not.i27, label %lean_inc.exit26, label %29

29:                                               ; preds = %28
  tail call void @lean_inc_ref_cold(ptr noundef nonnull %21) #4
  br label %lean_inc.exit26

lean_inc.exit26:                                  ; preds = %29, %28, %26, %17
  %30 = ptrtoint ptr %19 to i64
  %31 = and i64 %30, 1
  %.not31 = icmp eq i64 %31, 0
  br i1 %.not31, label %32, label %lean_inc.exit

32:                                               ; preds = %lean_inc.exit26
  %.val.i28 = load i32, ptr %19, align 4, !tbaa !4
  %33 = icmp sgt i32 %.val.i28, 0
  br i1 %33, label %34, label %36, !prof !11

34:                                               ; preds = %32
  %35 = add nuw i32 %.val.i28, 1
  store i32 %35, ptr %19, align 4, !tbaa !4
  br label %lean_inc.exit

36:                                               ; preds = %32
  %.not.i29 = icmp eq i32 %.val.i28, 0
  br i1 %.not.i29, label %lean_inc.exit, label %37

37:                                               ; preds = %36
  tail call void @lean_inc_ref_cold(ptr noundef nonnull %19) #4
  br label %lean_inc.exit

lean_inc.exit:                                    ; preds = %37, %36, %34, %lean_inc.exit26
  %38 = ptrtoint ptr %15 to i64
  %39 = and i64 %38, 1
  %.not32 = icmp eq i64 %39, 0
  br i1 %.not32, label %40, label %lean_dec.exit

40:                                               ; preds = %lean_inc.exit
  %41 = load i32, ptr %15, align 4, !tbaa !4
  %42 = icmp sgt i32 %41, 1
  br i1 %42, label %43, label %45, !prof !11

43:                                               ; preds = %40
  %44 = add nsw i32 %41, -1
  store i32 %44, ptr %15, align 4, !tbaa !4
  br label %lean_dec.exit

45:                                               ; preds = %40
  %.not.i = icmp eq i32 %41, 0
  br i1 %.not.i, label %lean_dec.exit, label %46

46:                                               ; preds = %45
  tail call void @lean_dec_ref_cold(ptr noundef nonnull %15) #4
  br label %lean_dec.exit

lean_dec.exit:                                    ; preds = %46, %45, %43, %lean_inc.exit
  tail call void @lean_inc_heartbeat() #4
  %47 = tail call noalias ptr @mi_malloc_small(i64 noundef 24) #4
  %48 = icmp eq ptr %47, null
  br i1 %48, label %49, label %lean_alloc_ctor.exit

49:                                               ; preds = %lean_dec.exit
  tail call void @lean_internal_panic_out_of_memory() #5
  unreachable

lean_alloc_ctor.exit:                             ; preds = %lean_dec.exit
  %50 = getelementptr inbounds nuw i8, ptr %47, i64 4
  store i32 1, ptr %47, align 4, !tbaa !4
  store i32 131096, ptr %50, align 4
  %51 = getelementptr inbounds nuw i8, ptr %47, i64 8
  store ptr %19, ptr %51, align 8, !tbaa !9
  %52 = getelementptr inbounds nuw i8, ptr %47, i64 16
  store ptr %21, ptr %52, align 8, !tbaa !9
  br label %53

53:                                               ; preds = %9, %lean_alloc_ctor.exit
  %.0 = phi ptr [ %47, %lean_alloc_ctor.exit ], [ %15, %9 ]
  ret ptr %.0
}